target datalayout = "e-m:e-p270:32:32-p271:32:32-p272:64:64-i64:64-i128:128-f80:128-n8:16:32:64-S128"
target triple = "x86_64-pc-linux-gnu"

%struct._zval_struct = type { %union._zend_value, %union.anon.0, %union.anon.3 }
%union._zend_value = type { i64 }
%union.anon.0 = type { i32 }
%union.anon.3 = type { i32 }
%struct._zend_array = type { %struct._zend_refcounted_h, %union.anon.5, i32, %union.anon.7, i32, i32, i32, i32, i64, ptr }
%struct._zend_refcounted_h = type { i32, %union.anon }
%union.anon = type { i32 }
%union.anon.5 = type { i32 }
%union.anon.7 = type { ptr }
%struct._zend_object_handlers = type { i32, ptr, ptr, ptr, ptr, ptr, ptr, ptr, ptr, ptr, ptr, ptr, ptr, ptr, ptr, ptr, ptr, ptr, ptr, ptr, ptr, ptr, ptr, ptr, ptr }
%struct._zend_object = type { %struct._zend_refcounted_h, i32, ptr, ptr, ptr, [1 x %struct._zval_struct] }
%struct._zend_class_entry = type { i8, ptr, %union.anon.4, i32, i32, i32, i32, ptr, ptr, ptr, %struct._zend_array, %struct._zend_array, %struct._zend_array, ptr, ptr, ptr, ptr, ptr, ptr, ptr, ptr, ptr, ptr, ptr, ptr, ptr, ptr, ptr, ptr, ptr, ptr, ptr, %union.anon.8, ptr, ptr, ptr, ptr, i32, i32, %union.anon.9, ptr, ptr, ptr, ptr, i32, ptr, ptr, %union.anon.10 }
%union.anon.4 = type { ptr }
%union.anon.8 = type { ptr }
%union.anon.9 = type { ptr }
%union.anon.10 = type { %struct.anon.11 }
%struct.anon.11 = type { ptr, i32, i32 }

; Function Attrs: nounwind uwtable
define ptr @zend_std_get_gc(ptr noundef %0, ptr noundef %1, ptr noundef %2) #0 {
  %4 = alloca ptr, align 8
  %5 = alloca ptr, align 8
  %6 = alloca ptr, align 8
  %7 = alloca ptr, align 8
  store ptr %0, ptr %5, align 8
  store ptr %1, ptr %6, align 8
  store ptr %2, ptr %7, align 8
  %8 = load ptr, ptr %5, align 8
  %9 = getelementptr inbounds %struct._zend_object, ptr %8, i32 0, i32 3
  %10 = load ptr, ptr %9, align 8
  %11 = getelementptr inbounds %struct._zend_object_handlers, ptr %10, i32 0, i32 13
  %12 = load ptr, ptr %11, align 8
  %13 = icmp ne ptr %12, @zend_std_get_properties
  br i1 %13, label %14, label %24

14:                                               ; preds = %3
  %15 = load ptr, ptr %6, align 8
  store ptr null, ptr %15, align 8
  %16 = load ptr, ptr %7, align 8
  store i32 0, ptr %16, align 4
  %17 = load ptr, ptr %5, align 8
  %18 = getelementptr inbounds %struct._zend_object, ptr %17, i32 0, i32 3
  %19 = load ptr, ptr %18, align 8
  %20 = getelementptr inbounds %struct._zend_object_handlers, ptr %19, i32 0, i32 13
  %21 = load ptr, ptr %20, align 8
  %22 = load ptr, ptr %5, align 8
  %23 = call ptr %21(ptr noundef %22)
  store ptr %23, ptr %4, align 8
  br label %46

24:                                               ; preds = %3
  %25 = load ptr, ptr %5, align 8
  %26 = getelementptr inbounds %struct._zend_object, ptr %25, i32 0, i32 4
  %27 = load ptr, ptr %26, align 8
  %28 = icmp ne ptr %27, null
  br i1 %28, label %29, label %35

29:                                               ; preds = %24
  %30 = load ptr, ptr %6, align 8
  store ptr null, ptr %30, align 8
  %31 = load ptr, ptr %7, align 8
  store i32 0, ptr %31, align 4
  %32 = load ptr, ptr %5, align 8
  %33 = getelementptr inbounds %struct._zend_object, ptr %32, i32 0, i32 4
  %34 = load ptr, ptr %33, align 8
  store ptr %34, ptr %4, align 8
  br label %46

35:                                               ; preds = %24
  %36 = load ptr, ptr %5, align 8
  %37 = getelementptr inbounds %struct._zend_object, ptr %36, i32 0, i32 5
  %38 = getelementptr inbounds [1 x %struct._zval_struct], ptr %37, i64 0, i64 0
  %39 = load ptr, ptr %6, align 8
  store ptr %38, ptr %39, align 8
  %40 = load ptr, ptr %5, align 8
  %41 = getelementptr inbounds %struct._zend_object, ptr %40, i32 0, i32 2
  %42 = load ptr, ptr %41, align 8
  %43 = getelementptr inbounds %struct._zend_class_entry, ptr %42, i32 0, i32 5
  %44 = load i32, ptr %43, align 8
  %45 = load ptr, ptr %7, align 8
  store i32 %44, ptr %45, align 4
  store ptr null, ptr %4, align 8
  br label %46

46:                                               ; preds = %35, %29, %14
  %47 = load ptr, ptr %4, align 8
  ret ptr %47
}