; Function Attrs: nounwind uwtable
define ptr @zend_std_get_gc(ptr noundef %0, ptr nocapture noundef writeonly %1, ptr nocapture noundef writeonly %2) #0 {
  %4 = getelementptr inbounds i8, ptr %0, i64 24
  %5 = load ptr, ptr %4, align 8
  %6 = getelementptr inbounds i8, ptr %5, i64 104
  %7 = load ptr, ptr %6, align 8
  %.not = icmp eq ptr %7, @zend_std_get_properties
  br i1 %.not, label %13, label %8

8:                                                ; preds = %3
  store ptr null, ptr %1, align 8
  store i32 0, ptr %2, align 4
  %9 = load ptr, ptr %4, align 8
  %10 = getelementptr inbounds i8, ptr %9, i64 104
  %11 = load ptr, ptr %10, align 8
  %12 = tail call ptr %11(ptr noundef nonnull %0) #15
  br label %24

13:                                               ; preds = %3
  %14 = getelementptr inbounds i8, ptr %0, i64 32
  %15 = load ptr, ptr %14, align 8
  %.not14 = icmp eq ptr %15, null
  br i1 %.not14, label %18, label %16

16:                                               ; preds = %13
  store ptr null, ptr %1, align 8
  store i32 0, ptr %2, align 4
  %17 = load ptr, ptr %14, align 8
  br label %24

18:                                               ; preds = %13
  %19 = getelementptr inbounds i8, ptr %0, i64 40
  store ptr %19, ptr %1, align 8
  %20 = getelementptr inbounds i8, ptr %0, i64 16
  %21 = load ptr, ptr %20, align 8
  %22 = getelementptr inbounds i8, ptr %21, i64 32
  %23 = load i32, ptr %22, align 8
  store i32 %23, ptr %2, align 4
  br label %24

24:                                               ; preds = %18, %16, %8
  %.0 = phi ptr [ %12, %8 ], [ %17, %16 ], [ null, %18 ]
  ret ptr %.0
}